; Function Attrs: mustprogress uwtable
define dso_local void @_ZNSt13runtime_errorC2ERKNSt3__112basic_stringIcNS0_11char_traitsIcEENS0_9allocatorIcEEEE(ptr noundef nonnull align 8 dereferenceable(16) initializes((0, 8)) %0, ptr noundef nonnull readonly align 8 captures(none) dereferenceable(24) %1) unnamed_addr #0 align 2 personality ptr @__gxx_personality_v0 {
  store ptr getelementptr inbounds nuw inrange(-16, 24) (i8, ptr @_ZTVSt13runtime_error, i64 16), ptr %0, align 8, !tbaa !4
  %3 = load i8, ptr %1, align 8
  %4 = and i8 %3, 1
  %.not.i.i.i = icmp eq i8 %4, 0
  %5 = getelementptr inbounds nuw i8, ptr %1, i64 16
  %6 = load ptr, ptr %5, align 8
  %7 = getelementptr inbounds nuw i8, ptr %1, i64 1
  %8 = select i1 %.not.i.i.i, ptr %7, ptr %6
  %9 = tail call i64 @strlen(ptr noundef nonnull dereferenceable(1) %8) #10
  %10 = add i64 %9, 25
  %11 = invoke noalias noundef nonnull ptr @_Znwm(i64 noundef %10) #11
          to label %12 unwind label %18

12:                                               ; preds = %2
  %13 = getelementptr inbounds nuw i8, ptr %0, i64 8
  store i64 %9, ptr %11, align 8, !tbaa !7
  %14 = getelementptr inbounds nuw i8, ptr %11, i64 8
  store i64 %9, ptr %14, align 8, !tbaa !12
  %15 = getelementptr inbounds nuw i8, ptr %11, i64 16
  store i32 0, ptr %15, align 8, !tbaa !13
  %16 = getelementptr inbounds nuw i8, ptr %11, i64 24
  %17 = add i64 %9, 1
  tail call void @llvm.memcpy.p0.p0.i64(ptr nonnull align 1 %16, ptr nonnull align 1 %8, i64 %17, i1 false)
  store ptr %16, ptr %13, align 8, !tbaa !14
  ret void

18:                                               ; preds = %2
  %19 = landingpad { ptr, i32 }
          cleanup
  tail call void @_ZNSt9exceptionD2Ev(ptr noundef nonnull align 8 dereferenceable(8) %0) #12
  resume { ptr, i32 } %19
}